target datalayout = "e-m:e-p270:32:32-p271:32:32-p272:64:64-i64:64-i128:128-f80:128-n8:16:32:64-S128"
target triple = "x86_64-pc-linux-gnu"

%struct.AVTextFormatContext = type { ptr, ptr, ptr, ptr, ptr, ptr, i32, i32, [12 x i32], [12 x [100 x i32]], [12 x ptr], [12 x %struct.AVBPrint], i32, i32, i32, i32, i32, ptr, i32, ptr, i32 }
%struct.AVBPrint = type { ptr, i32, i32, i32, [1 x i8], [1000 x i8] }

@.str.39 = private unnamed_addr constant [3 x i8] c"0X\00", align 1
@.str.40 = private unnamed_addr constant [5 x i8] c"%02X\00", align 1
@.str.55 = private unnamed_addr constant [50 x i8] c"Invalid UTF-8 sequence '%s' found in string '%s'\0A\00", align 1
@.str.56 = private unnamed_addr constant [45 x i8] c"Invalid UTF-8 sequence found in string '%s'\0A\00", align 1
@.str.57 = private unnamed_addr constant [3 x i8] c"%s\00", align 1
@.str.58 = private unnamed_addr constant [71 x i8] c"%d invalid UTF-8 sequence(s) found in string '%s', replaced with '%s'\0A\00", align 1

; Function Attrs: nounwind uwtable
define internal void @bprint_bytes(ptr noundef %0, ptr noundef %1, i64 noundef %2) #0 {
  %4 = alloca ptr, align 8
  %5 = alloca ptr, align 8
  %6 = alloca i64, align 8
  %7 = alloca i32, align 4
  store ptr %0, ptr %4, align 8, !tbaa !68
  store ptr %1, ptr %5, align 8, !tbaa !30
  store i64 %2, ptr %6, align 8, !tbaa !70
  %8 = load ptr, ptr %4, align 8, !tbaa !68
  call void (ptr, ptr, ...) @av_bprintf(ptr noundef %8, ptr noundef @.str.39)
  call void @llvm.lifetime.start.p0(i64 4, ptr %7) #10
  store i32 0, ptr %7, align 4, !tbaa !12
  br label %9

9:                                                ; preds = %23, %3
  %10 = load i32, ptr %7, align 4, !tbaa !12
  %11 = zext i32 %10 to i64
  %12 = load i64, ptr %6, align 8, !tbaa !70
  %13 = icmp ult i64 %11, %12
  br i1 %13, label %15, label %14

14:                                               ; preds = %9
  call void @llvm.lifetime.end.p0(i64 4, ptr %7) #10
  br label %26

15:                                               ; preds = %9
  %16 = load ptr, ptr %4, align 8, !tbaa !68
  %17 = load ptr, ptr %5, align 8, !tbaa !30
  %18 = load i32, ptr %7, align 4, !tbaa !12
  %19 = zext i32 %18 to i64
  %20 = getelementptr inbounds nuw i8, ptr %17, i64 %19
  %21 = load i8, ptr %20, align 1, !tbaa !62
  %22 = zext i8 %21 to i32
  call void (ptr, ptr, ...) @av_bprintf(ptr noundef %16, ptr noundef @.str.40, i32 noundef %22)
  br label %23

23:                                               ; preds = %15
  %24 = load i32, ptr %7, align 4, !tbaa !12
  %25 = add i32 %24, 1
  store i32 %25, ptr %7, align 4, !tbaa !12
  br label %9, !llvm.loop !72

26:                                               ; preds = %14
  ret void
}

; Function Attrs: inlinehint nounwind uwtable
define internal i32 @validate_string(ptr noundef %0, ptr noundef %1, ptr noundef %2) #6 {
  %4 = alloca i32, align 4
  %5 = alloca ptr, align 8
  %6 = alloca ptr, align 8
  %7 = alloca ptr, align 8
  %8 = alloca ptr, align 8
  %9 = alloca ptr, align 8
  %10 = alloca ptr, align 8
  %11 = alloca %struct.AVBPrint, align 8
  %12 = alloca %struct.AVBPrint, align 8
  %13 = alloca i32, align 4
  %14 = alloca i32, align 4
  %15 = alloca i32, align 4
  %16 = alloca i32, align 4
  %17 = alloca ptr, align 8
  %18 = alloca i32, align 4
  store ptr %0, ptr %5, align 8, !tbaa !10
  store ptr %1, ptr %6, align 8, !tbaa !92
  store ptr %2, ptr %7, align 8, !tbaa !30
  call void @llvm.lifetime.start.p0(i64 8, ptr %8) #10
  call void @llvm.lifetime.start.p0(i64 8, ptr %9) #10
  call void @llvm.lifetime.start.p0(i64 8, ptr %10) #10
  %19 = load ptr, ptr %7, align 8, !tbaa !30
  store ptr %19, ptr %10, align 8, !tbaa !30
  call void @llvm.lifetime.start.p0(i64 1024, ptr %11) #10
  call void @llvm.lifetime.start.p0(i64 1024, ptr %12) #10
  call void @llvm.lifetime.start.p0(i64 4, ptr %13) #10
  store i32 0, ptr %13, align 4, !tbaa !12
  call void @llvm.lifetime.start.p0(i64 4, ptr %14) #10
  store i32 0, ptr %14, align 4, !tbaa !12
  %20 = load ptr, ptr %6, align 8, !tbaa !92
  store ptr null, ptr %20, align 8, !tbaa !30
  call void @av_bprint_init(ptr noundef %11, i32 noundef 0, i32 noundef -1)
  call void @av_bprint_init(ptr noundef %12, i32 noundef 0, i32 noundef -1)
  %21 = load ptr, ptr %10, align 8, !tbaa !30
  %22 = load ptr, ptr %7, align 8, !tbaa !30
  %23 = call i64 @strlen(ptr noundef %22) #12
  %24 = getelementptr inbounds nuw i8, ptr %21, i64 %23
  store ptr %24, ptr %9, align 8, !tbaa !30
  %25 = load ptr, ptr %10, align 8, !tbaa !30
  store ptr %25, ptr %8, align 8, !tbaa !30
  br label %26

26:                                               ; preds = %85, %3
  %27 = load ptr, ptr %8, align 8, !tbaa !30
  %28 = load i8, ptr %27, align 1, !tbaa !62
  %29 = icmp ne i8 %28, 0
  br i1 %29, label %30, label %86

30:                                               ; preds = %26
  call void @llvm.lifetime.start.p0(i64 4, ptr %15) #10
  call void @llvm.lifetime.start.p0(i64 4, ptr %16) #10
  store i32 0, ptr %16, align 4, !tbaa !12
  call void @llvm.lifetime.start.p0(i64 8, ptr %17) #10
  %31 = load ptr, ptr %8, align 8, !tbaa !30
  store ptr %31, ptr %17, align 8, !tbaa !30
  %32 = load ptr, ptr %9, align 8, !tbaa !30
  %33 = load ptr, ptr %5, align 8, !tbaa !10
  %34 = getelementptr inbounds nuw %struct.AVTextFormatContext, ptr %33, i32 0, i32 20
  %35 = load i32, ptr %34, align 8, !tbaa !63
  %36 = call i32 @av_utf8_decode(ptr noundef %15, ptr noundef %8, ptr noundef %32, i32 noundef %35)
  %37 = icmp slt i32 %36, 0
  br i1 %37, label %38, label %49

38:                                               ; preds = %30
  call void @av_bprint_clear(ptr noundef %12)
  %39 = load ptr, ptr %17, align 8, !tbaa !30
  %40 = load ptr, ptr %8, align 8, !tbaa !30
  %41 = load ptr, ptr %17, align 8, !tbaa !30
  %42 = ptrtoint ptr %40 to i64
  %43 = ptrtoint ptr %41 to i64
  %44 = sub i64 %42, %43
  call void @bprint_bytes(ptr noundef %12, ptr noundef %39, i64 noundef %44)
  %45 = load ptr, ptr %5, align 8, !tbaa !10
  %46 = getelementptr inbounds nuw %struct.AVBPrint, ptr %12, i32 0, i32 0
  %47 = load ptr, ptr %46, align 8, !tbaa !64
  %48 = load ptr, ptr %7, align 8, !tbaa !30
  call void (ptr, i32, ptr, ...) @av_log(ptr noundef %45, i32 noundef 48, ptr noundef @.str.55, ptr noundef %47, ptr noundef %48)
  store i32 1, ptr %16, align 4, !tbaa !12
  br label %49

49:                                               ; preds = %38, %30
  %50 = load i32, ptr %16, align 4, !tbaa !12
  %51 = icmp ne i32 %50, 0
  br i1 %51, label %52, label %66

52:                                               ; preds = %49
  %53 = load i32, ptr %13, align 4, !tbaa !12
  %54 = add nsw i32 %53, 1
  store i32 %54, ptr %13, align 4, !tbaa !12
  %55 = load ptr, ptr %5, align 8, !tbaa !10
  %56 = getelementptr inbounds nuw %struct.AVTextFormatContext, ptr %55, i32 0, i32 18
  %57 = load i32, ptr %56, align 8, !tbaa !94
  switch i32 %57, label %65 [
    i32 0, label %58
    i32 1, label %61
  ]

58:                                               ; preds = %52
  %59 = load ptr, ptr %5, align 8, !tbaa !10
  %60 = load ptr, ptr %7, align 8, !tbaa !30
  call void (ptr, i32, ptr, ...) @av_log(ptr noundef %59, i32 noundef 16, ptr noundef @.str.56, ptr noundef %60)
  store i32 -1094995529, ptr %14, align 4, !tbaa !12
  store i32 5, ptr %18, align 4
  br label %83

61:                                               ; preds = %52
  %62 = load ptr, ptr %5, align 8, !tbaa !10
  %63 = getelementptr inbounds nuw %struct.AVTextFormatContext, ptr %62, i32 0, i32 19
  %64 = load ptr, ptr %63, align 8, !tbaa !61
  call void (ptr, ptr, ...) @av_bprintf(ptr noundef %11, ptr noundef @.str.57, ptr noundef %64)
  br label %65

65:                                               ; preds = %52, %61
  br label %66

66:                                               ; preds = %65, %49
  %67 = load i32, ptr %16, align 4, !tbaa !12
  %68 = icmp ne i32 %67, 0
  br i1 %68, label %69, label %74

69:                                               ; preds = %66
  %70 = load ptr, ptr %5, align 8, !tbaa !10
  %71 = getelementptr inbounds nuw %struct.AVTextFormatContext, ptr %70, i32 0, i32 18
  %72 = load i32, ptr %71, align 8, !tbaa !94
  %73 = icmp eq i32 %72, 2
  br i1 %73, label %74, label %82

74:                                               ; preds = %69, %66
  %75 = load ptr, ptr %17, align 8, !tbaa !30
  %76 = load ptr, ptr %8, align 8, !tbaa !30
  %77 = load ptr, ptr %17, align 8, !tbaa !30
  %78 = ptrtoint ptr %76 to i64
  %79 = ptrtoint ptr %77 to i64
  %80 = sub i64 %78, %79
  %81 = trunc i64 %80 to i32
  call void @av_bprint_append_data(ptr noundef %11, ptr noundef %75, i32 noundef %81)
  br label %82

82:                                               ; preds = %74, %69
  store i32 0, ptr %18, align 4
  br label %83

83:                                               ; preds = %58, %82
  call void @llvm.lifetime.end.p0(i64 8, ptr %17) #10
  call void @llvm.lifetime.end.p0(i64 4, ptr %16) #10
  call void @llvm.lifetime.end.p0(i64 4, ptr %15) #10
  %84 = load i32, ptr %18, align 4
  switch i32 %84, label %107 [
    i32 0, label %85
    i32 5, label %102
  ]

85:                                               ; preds = %83
  br label %26, !llvm.loop !95

86:                                               ; preds = %26
  %87 = load i32, ptr %13, align 4, !tbaa !12
  %88 = icmp ne i32 %87, 0
  br i1 %88, label %89, label %101

89:                                               ; preds = %86
  %90 = load ptr, ptr %5, align 8, !tbaa !10
  %91 = getelementptr inbounds nuw %struct.AVTextFormatContext, ptr %90, i32 0, i32 18
  %92 = load i32, ptr %91, align 8, !tbaa !94
  %93 = icmp eq i32 %92, 1
  br i1 %93, label %94, label %101

94:                                               ; preds = %89
  %95 = load ptr, ptr %5, align 8, !tbaa !10
  %96 = load i32, ptr %13, align 4, !tbaa !12
  %97 = load ptr, ptr %7, align 8, !tbaa !30
  %98 = load ptr, ptr %5, align 8, !tbaa !10
  %99 = getelementptr inbounds nuw %struct.AVTextFormatContext, ptr %98, i32 0, i32 19
  %100 = load ptr, ptr %99, align 8, !tbaa !61
  call void (ptr, i32, ptr, ...) @av_log(ptr noundef %95, i32 noundef 24, ptr noundef @.str.58, i32 noundef %96, ptr noundef %97, ptr noundef %100)
  br label %101

101:                                              ; preds = %94, %89, %86
  br label %102

102:                                              ; preds = %101, %83
  %103 = load ptr, ptr %6, align 8, !tbaa !92
  %104 = call i32 @av_bprint_finalize(ptr noundef %11, ptr noundef %103)
  %105 = call i32 @av_bprint_finalize(ptr noundef %12, ptr noundef null)
  %106 = load i32, ptr %14, align 4, !tbaa !12
  store i32 %106, ptr %4, align 4
  store i32 1, ptr %18, align 4
  br label %107

107:                                              ; preds = %102, %83
  call void @llvm.lifetime.end.p0(i64 4, ptr %14) #10
  call void @llvm.lifetime.end.p0(i64 4, ptr %13) #10
  call void @llvm.lifetime.end.p0(i64 1024, ptr %12) #10
  call void @llvm.lifetime.end.p0(i64 1024, ptr %11) #10
  call void @llvm.lifetime.end.p0(i64 8, ptr %10) #10
  call void @llvm.lifetime.end.p0(i64 8, ptr %9) #10
  call void @llvm.lifetime.end.p0(i64 8, ptr %8) #10
  %108 = load i32, ptr %4, align 4
  ret i32 %108
}