; Function Attrs: inlinehint nounwind uwtable
define internal fastcc range(i32 -1094995529, 1) i32 @validate_string(ptr noundef %0, ptr noundef nonnull initializes((0, 8)) %1, ptr noundef nonnull %2) unnamed_addr #6 {
  %4 = alloca ptr, align 8
  %5 = alloca %struct.AVBPrint, align 8
  %6 = alloca %struct.AVBPrint, align 8
  %7 = alloca i32, align 4
  call void @llvm.lifetime.start.p0(i64 8, ptr nonnull %4) #12
  call void @llvm.lifetime.start.p0(i64 1024, ptr nonnull %5) #12
  call void @llvm.lifetime.start.p0(i64 1024, ptr nonnull %6) #12
  store ptr null, ptr %1, align 8, !tbaa !51
  call void @av_bprint_init(ptr noundef nonnull %5, i32 noundef 0, i32 noundef -1) #12
  call void @av_bprint_init(ptr noundef nonnull %6, i32 noundef 0, i32 noundef -1) #12
  %8 = call i64 @strlen(ptr noundef nonnull dereferenceable(1) %2) #14
  %9 = getelementptr inbounds nuw i8, ptr %2, i64 %8
  store ptr %2, ptr %4, align 8, !tbaa !51
  %10 = load i8, ptr %2, align 1, !tbaa !52
  %.not45 = icmp eq i8 %10, 0
  br i1 %.not45, label %._crit_edge.thread, label %.lr.ph

.lr.ph:                                           ; preds = %3
  %11 = getelementptr inbounds nuw i8, ptr %0, i64 17336
  %12 = getelementptr inbounds nuw i8, ptr %0, i64 17320
  %13 = getelementptr inbounds nuw i8, ptr %0, i64 17328
  br label %14

14:                                               ; preds = %.lr.ph, %43
  %15 = phi ptr [ %2, %.lr.ph ], [ %44, %43 ]
  %.03346 = phi i32 [ 0, %.lr.ph ], [ %.235, %43 ]
  call void @llvm.lifetime.start.p0(i64 4, ptr nonnull %7) #12
  %16 = load i32, ptr %11, align 8, !tbaa !53
  %17 = call i32 @av_utf8_decode(ptr noundef nonnull %7, ptr noundef nonnull %4, ptr noundef nonnull %9, i32 noundef %16) #12
  %18 = icmp sgt i32 %17, -1
  br i1 %18, label %..critedge_crit_edge, label %19

..critedge_crit_edge:                             ; preds = %14
  %.pre47 = ptrtoint ptr %15 to i64
  br label %.critedge

19:                                               ; preds = %14
  call void @av_bprint_clear(ptr noundef nonnull %6) #12
  %20 = load ptr, ptr %4, align 8, !tbaa !51
  %21 = ptrtoint ptr %20 to i64
  %22 = ptrtoint ptr %15 to i64
  %23 = sub i64 %21, %22
  call void (ptr, ptr, ...) @av_bprintf(ptr noundef nonnull %6, ptr noundef nonnull @.str.39) #12
  %.not.i = icmp eq ptr %20, %15
  br i1 %.not.i, label %bprint_bytes.exit, label %.lr.ph.i

.lr.ph.i:                                         ; preds = %19, %.lr.ph.i
  %24 = phi i64 [ %29, %.lr.ph.i ], [ 0, %19 ]
  %.07.i = phi i32 [ %28, %.lr.ph.i ], [ 0, %19 ]
  %25 = getelementptr inbounds nuw i8, ptr %15, i64 %24
  %26 = load i8, ptr %25, align 1, !tbaa !52
  %27 = zext i8 %26 to i32
  call void (ptr, ptr, ...) @av_bprintf(ptr noundef nonnull %6, ptr noundef nonnull @.str.40, i32 noundef %27) #12
  %28 = add i32 %.07.i, 1
  %29 = zext i32 %28 to i64
  %30 = icmp ugt i64 %23, %29
  br i1 %30, label %.lr.ph.i, label %bprint_bytes.exit, !llvm.loop !55

bprint_bytes.exit:                                ; preds = %.lr.ph.i, %19
  %31 = load ptr, ptr %6, align 8, !tbaa !56
  call void (ptr, i32, ptr, ...) @av_log(ptr noundef nonnull %0, i32 noundef 48, ptr noundef nonnull @.str.55, ptr noundef %31, ptr noundef nonnull %2) #12
  %32 = add nsw i32 %.03346, 1
  %33 = load i32, ptr %12, align 8, !tbaa !73
  switch i32 %33, label %36 [
    i32 0, label %.thread
    i32 1, label %34
  ]

.thread:                                          ; preds = %bprint_bytes.exit
  call void (ptr, i32, ptr, ...) @av_log(ptr noundef nonnull %0, i32 noundef 16, ptr noundef nonnull @.str.56, ptr noundef nonnull %2) #12
  call void @llvm.lifetime.end.p0(i64 4, ptr nonnull %7) #12
  br label %._crit_edge.thread

34:                                               ; preds = %bprint_bytes.exit
  %35 = load ptr, ptr %13, align 8, !tbaa !50
  call void (ptr, ptr, ...) @av_bprintf(ptr noundef nonnull %5, ptr noundef nonnull @.str.57, ptr noundef %35) #12
  %.pre = load i32, ptr %12, align 8, !tbaa !73
  br label %36

36:                                               ; preds = %bprint_bytes.exit, %34
  %37 = phi i32 [ %33, %bprint_bytes.exit ], [ %.pre, %34 ]
  %38 = icmp eq i32 %37, 2
  br i1 %38, label %.critedge, label %43

.critedge:                                        ; preds = %..critedge_crit_edge, %36
  %.pre-phi = phi i64 [ %.pre47, %..critedge_crit_edge ], [ %22, %36 ]
  %.13440 = phi i32 [ %.03346, %..critedge_crit_edge ], [ %32, %36 ]
  %39 = load ptr, ptr %4, align 8, !tbaa !51
  %40 = ptrtoint ptr %39 to i64
  %41 = sub i64 %40, %.pre-phi
  %42 = trunc i64 %41 to i32
  call void @av_bprint_append_data(ptr noundef nonnull %5, ptr noundef nonnull %15, i32 noundef %42) #12
  br label %43

43:                                               ; preds = %36, %.critedge
  %.235 = phi i32 [ %.13440, %.critedge ], [ %32, %36 ]
  call void @llvm.lifetime.end.p0(i64 4, ptr nonnull %7) #12
  %44 = load ptr, ptr %4, align 8, !tbaa !51
  %45 = load i8, ptr %44, align 1, !tbaa !52
  %.not = icmp eq i8 %45, 0
  br i1 %.not, label %._crit_edge, label %14

._crit_edge:                                      ; preds = %43
  %.not36 = icmp eq i32 %.235, 0
  br i1 %.not36, label %._crit_edge.thread, label %46

46:                                               ; preds = %._crit_edge
  %47 = getelementptr inbounds nuw i8, ptr %0, i64 17320
  %48 = load i32, ptr %47, align 8, !tbaa !73
  %49 = icmp eq i32 %48, 1
  br i1 %49, label %50, label %._crit_edge.thread

50:                                               ; preds = %46
  %51 = getelementptr inbounds nuw i8, ptr %0, i64 17328
  %52 = load ptr, ptr %51, align 8, !tbaa !50
  call void (ptr, i32, ptr, ...) @av_log(ptr noundef nonnull %0, i32 noundef 24, ptr noundef nonnull @.str.58, i32 noundef %.235, ptr noundef nonnull %2, ptr noundef %52) #12
  br label %._crit_edge.thread

._crit_edge.thread:                               ; preds = %3, %50, %46, %._crit_edge, %.thread
  %.2 = phi i32 [ 0, %50 ], [ 0, %46 ], [ 0, %._crit_edge ], [ -1094995529, %.thread ], [ 0, %3 ]
  %53 = call i32 @av_bprint_finalize(ptr noundef nonnull %5, ptr noundef nonnull %1) #12
  %54 = call i32 @av_bprint_finalize(ptr noundef nonnull %6, ptr noundef null) #12
  call void @llvm.lifetime.end.p0(i64 1024, ptr nonnull %6) #12
  call void @llvm.lifetime.end.p0(i64 1024, ptr nonnull %5) #12
  call void @llvm.lifetime.end.p0(i64 8, ptr nonnull %4) #12
  ret i32 %.2
}